target datalayout = "e-m:e-p270:32:32-p271:32:32-p272:64:64-i64:64-i128:128-f80:128-n8:16:32:64-S128"
target triple = "x86_64-pc-linux-gnu"

%struct.VkComponentMapping = type { i32, i32, i32, i32 }
%struct.SDL_AtomicInt = type { i32 }
%struct.VulkanRenderer = type { ptr, ptr, %struct.VkPhysicalDeviceProperties2, %struct.VkPhysicalDeviceDriverProperties, %struct.VkPhysicalDeviceFeatures, ptr, i8, i8, i8, i8, i8, i8, i32, i32, %struct.VulkanExtensions, i8, i8, i8, i8, ptr, %struct.VkPhysicalDeviceMemoryProperties, i8, ptr, i32, i32, i32, ptr, ptr, i32, i32, %struct.VulkanFencePool, ptr, ptr, ptr, ptr, ptr, ptr, ptr, i32, i32, ptr, i32, i32, %struct.SDL_AtomicInt, i32, ptr, i32, i32, ptr, i32, i32, ptr, i32, i32, ptr, i32, i32, ptr, i32, i32, ptr, i32, i32, ptr, i32, i32, ptr, ptr, ptr, ptr, ptr, ptr, ptr, ptr, ptr, ptr, ptr, i8, ptr, i32, i32, ptr, ptr, ptr, ptr, ptr, ptr, ptr, ptr, ptr, ptr, ptr, ptr, ptr, ptr, ptr, ptr, ptr, ptr, ptr, ptr, ptr, ptr, ptr, ptr, ptr, ptr, ptr, ptr, ptr, ptr, ptr, ptr, ptr, ptr, ptr, ptr, ptr, ptr, ptr, ptr, ptr, ptr, ptr, ptr, ptr, ptr, ptr, ptr, ptr, ptr, ptr, ptr, ptr, ptr, ptr, ptr, ptr, ptr, ptr, ptr, ptr, ptr, ptr, ptr, ptr, ptr, ptr, ptr, ptr, ptr, ptr, ptr, ptr, ptr, ptr, ptr, ptr, ptr, ptr, ptr, ptr, ptr, ptr, ptr, ptr, ptr, ptr, ptr, ptr, ptr, ptr, ptr, ptr, ptr, ptr, ptr, ptr, ptr, ptr, ptr, ptr, ptr, ptr, ptr, ptr, ptr, ptr, ptr, ptr, ptr }
%struct.VkPhysicalDeviceProperties2 = type { i32, ptr, %struct.VkPhysicalDeviceProperties }
%struct.VkPhysicalDeviceProperties = type { i32, i32, i32, i32, i32, [256 x i8], [16 x i8], %struct.VkPhysicalDeviceLimits, %struct.VkPhysicalDeviceSparseProperties }
%struct.VkPhysicalDeviceLimits = type { i32, i32, i32, i32, i32, i32, i32, i32, i32, i32, i32, i64, i64, i32, i32, i32, i32, i32, i32, i32, i32, i32, i32, i32, i32, i32, i32, i32, i32, i32, i32, i32, i32, i32, i32, i32, i32, i32, i32, i32, i32, i32, i32, i32, i32, i32, i32, i32, i32, i32, i32, i32, [3 x i32], i32, [3 x i32], i32, i32, i32, i32, i32, float, float, i32, [2 x i32], [2 x float], i32, i64, i64, i64, i64, i32, i32, i32, i32, float, float, i32, i32, i32, i32, i32, i32, i32, i32, i32, i32, i32, i32, i32, i32, i32, i32, float, i32, i32, i32, i32, [2 x float], [2 x float], float, float, i32, i32, i64, i64, i64 }
%struct.VkPhysicalDeviceSparseProperties = type { i32, i32, i32, i32, i32 }
%struct.VkPhysicalDeviceDriverProperties = type { i32, ptr, i32, [256 x i8], [256 x i8], %struct.VkConformanceVersion }
%struct.VkConformanceVersion = type { i8, i8, i8, i8 }
%struct.VkPhysicalDeviceFeatures = type { i32, i32, i32, i32, i32, i32, i32, i32, i32, i32, i32, i32, i32, i32, i32, i32, i32, i32, i32, i32, i32, i32, i32, i32, i32, i32, i32, i32, i32, i32, i32, i32, i32, i32, i32, i32, i32, i32, i32, i32, i32, i32, i32, i32, i32, i32, i32, i32, i32, i32, i32, i32, i32, i32, i32 }
%struct.VulkanExtensions = type { i8, i8, i8, i8, i8 }
%struct.VkPhysicalDeviceMemoryProperties = type { i32, [32 x %struct.VkMemoryType], i32, [16 x %struct.VkMemoryHeap] }
%struct.VkMemoryType = type { i32, i32 }
%struct.VkMemoryHeap = type { i64, i32 }
%struct.VulkanFencePool = type { ptr, ptr, i32, i32 }
%struct.WindowData = type { ptr, i32, i32, i8, i32, i32, ptr, ptr, i32, i32, %struct.VkComponentMapping, i8, ptr, i32, i32, i32, [3 x ptr], ptr, [3 x ptr], i32 }
%struct.VkExtent2D = type { i32, i32 }
%struct.SwapchainSupportDetails = type { %struct.VkSurfaceCapabilitiesKHR, ptr, i32, ptr, i32 }
%struct.VkSurfaceCapabilitiesKHR = type { i32, i32, %struct.VkExtent2D, %struct.VkExtent2D, %struct.VkExtent2D, i32, i32, i32, i32, i32 }

@.str.43 = private unnamed_addr constant [3 x i8] c"%s\00", align 1
@.str.214 = private unnamed_addr constant [29 x i8] c"Window has no Vulkan surface\00", align 1
@.str.215 = private unnamed_addr constant [32 x i8] c"SDL_GPUVulkanWindowPropertyData\00", align 1
@.str.218 = private unnamed_addr constant [56 x i8] c"Must claim window before querying present mode support!\00", align 1
@SDLToVK_PresentMode = internal global [3 x i32] [i32 2, i32 0, i32 1], align 4

; Function Attrs: nounwind uwtable
define internal zeroext i1 @VULKAN_INTERNAL_VerifySwapPresentMode(i32 noundef %0, ptr noundef %1, i32 noundef %2) #0 {
  %4 = alloca i1, align 1
  %5 = alloca i32, align 4
  %6 = alloca ptr, align 8
  %7 = alloca i32, align 4
  %8 = alloca i32, align 4
  %9 = alloca i32, align 4
  store i32 %0, ptr %5, align 4
  store ptr %1, ptr %6, align 8
  store i32 %2, ptr %7, align 4
  call void @llvm.lifetime.start.p0(i64 4, ptr %8) #9
  store i32 0, ptr %8, align 4
  br label %10

10:                                               ; preds = %24, %3
  %11 = load i32, ptr %8, align 4
  %12 = load i32, ptr %7, align 4
  %13 = icmp ult i32 %11, %12
  br i1 %13, label %14, label %27

14:                                               ; preds = %10
  %15 = load ptr, ptr %6, align 8
  %16 = load i32, ptr %8, align 4
  %17 = zext i32 %16 to i64
  %18 = getelementptr inbounds nuw i32, ptr %15, i64 %17
  %19 = load i32, ptr %18, align 4
  %20 = load i32, ptr %5, align 4
  %21 = icmp eq i32 %19, %20
  br i1 %21, label %22, label %23

22:                                               ; preds = %14
  store i1 true, ptr %4, align 1
  store i32 1, ptr %9, align 4
  br label %28

23:                                               ; preds = %14
  br label %24

24:                                               ; preds = %23
  %25 = load i32, ptr %8, align 4
  %26 = add i32 %25, 1
  store i32 %26, ptr %8, align 4
  br label %10, !llvm.loop !156

27:                                               ; preds = %10
  store i1 false, ptr %4, align 1
  store i32 1, ptr %9, align 4
  br label %28

28:                                               ; preds = %27, %22
  call void @llvm.lifetime.end.p0(i64 4, ptr %8) #9
  %29 = load i1, ptr %4, align 1
  ret i1 %29
}

; Function Attrs: nounwind uwtable
define internal ptr @VULKAN_INTERNAL_FetchWindowData(ptr noundef %0) #0 {
  %2 = alloca ptr, align 8
  %3 = alloca i32, align 4
  store ptr %0, ptr %2, align 8
  call void @llvm.lifetime.start.p0(i64 4, ptr %3) #9
  %4 = load ptr, ptr %2, align 8
  %5 = call i32 @SDL_GetWindowProperties_REAL(ptr noundef %4)
  store i32 %5, ptr %3, align 4
  %6 = load i32, ptr %3, align 4
  %7 = call ptr @SDL_GetPointerProperty_REAL(i32 noundef %6, ptr noundef @.str.215, ptr noundef null)
  call void @llvm.lifetime.end.p0(i64 4, ptr %3) #9
  ret ptr %7
}

; Function Attrs: nounwind uwtable
define internal zeroext i1 @VULKAN_SupportsPresentMode(ptr noundef %0, ptr noundef %1, i32 noundef %2) #0 {
  %4 = alloca i1, align 1
  %5 = alloca ptr, align 8
  %6 = alloca ptr, align 8
  %7 = alloca i32, align 4
  %8 = alloca ptr, align 8
  %9 = alloca ptr, align 8
  %10 = alloca ptr, align 8
  %11 = alloca %struct.SwapchainSupportDetails, align 8
  %12 = alloca i8, align 1
  %13 = alloca i32, align 4
  store ptr %0, ptr %5, align 8
  store ptr %1, ptr %6, align 8
  store i32 %2, ptr %7, align 4
  call void @llvm.lifetime.start.p0(i64 8, ptr %8) #9
  %14 = load ptr, ptr %5, align 8
  store ptr %14, ptr %8, align 8
  call void @llvm.lifetime.start.p0(i64 8, ptr %9) #9
  %15 = load ptr, ptr %6, align 8
  %16 = call ptr @VULKAN_INTERNAL_FetchWindowData(ptr noundef %15)
  store ptr %16, ptr %9, align 8
  call void @llvm.lifetime.start.p0(i64 8, ptr %10) #9
  call void @llvm.lifetime.start.p0(i64 88, ptr %11) #9
  call void @llvm.lifetime.start.p0(i64 1, ptr %12) #9
  store i8 0, ptr %12, align 1
  %17 = load ptr, ptr %9, align 8
  %18 = icmp eq ptr %17, null
  br i1 %18, label %19, label %30

19:                                               ; preds = %3
  br label %20

20:                                               ; preds = %19
  %21 = load ptr, ptr %8, align 8
  %22 = getelementptr inbounds nuw %struct.VulkanRenderer, ptr %21, i32 0, i32 10
  %23 = load i8, ptr %22, align 4, !range !3, !noundef !4
  %24 = trunc i8 %23 to i1
  br i1 %24, label %25, label %26

25:                                               ; preds = %20
  call void (i32, ptr, ...) @SDL_LogError_REAL(i32 noundef 9, ptr noundef @.str.43, ptr noundef @.str.218)
  br label %26

26:                                               ; preds = %25, %20
  %27 = call zeroext i1 (ptr, ...) @SDL_SetError_REAL(ptr noundef @.str.43, ptr noundef @.str.218)
  store i1 false, ptr %4, align 1
  store i32 1, ptr %13, align 4
  br label %72

28:                                               ; No predecessors!
  br label %29

29:                                               ; preds = %28
  br label %30

30:                                               ; preds = %29, %3
  %31 = load ptr, ptr %9, align 8
  %32 = getelementptr inbounds nuw %struct.WindowData, ptr %31, i32 0, i32 6
  %33 = load ptr, ptr %32, align 8
  store ptr %33, ptr %10, align 8
  %34 = load ptr, ptr %10, align 8
  %35 = icmp ne ptr %34, null
  br i1 %35, label %47, label %36

36:                                               ; preds = %30
  br label %37

37:                                               ; preds = %36
  %38 = load ptr, ptr %8, align 8
  %39 = getelementptr inbounds nuw %struct.VulkanRenderer, ptr %38, i32 0, i32 10
  %40 = load i8, ptr %39, align 4, !range !3, !noundef !4
  %41 = trunc i8 %40 to i1
  br i1 %41, label %42, label %43

42:                                               ; preds = %37
  call void (i32, ptr, ...) @SDL_LogError_REAL(i32 noundef 9, ptr noundef @.str.43, ptr noundef @.str.214)
  br label %43

43:                                               ; preds = %42, %37
  %44 = call zeroext i1 (ptr, ...) @SDL_SetError_REAL(ptr noundef @.str.43, ptr noundef @.str.214)
  store i1 false, ptr %4, align 1
  store i32 1, ptr %13, align 4
  br label %72

45:                                               ; No predecessors!
  br label %46

46:                                               ; preds = %45
  br label %47

47:                                               ; preds = %46, %30
  %48 = load ptr, ptr %8, align 8
  %49 = load ptr, ptr %8, align 8
  %50 = getelementptr inbounds nuw %struct.VulkanRenderer, ptr %49, i32 0, i32 1
  %51 = load ptr, ptr %50, align 8
  %52 = load ptr, ptr %10, align 8
  %53 = call zeroext i1 @VULKAN_INTERNAL_QuerySwapchainSupport(ptr noundef %48, ptr noundef %51, ptr noundef %52, ptr noundef %11)
  br i1 %53, label %54, label %69

54:                                               ; preds = %47
  %55 = load i32, ptr %7, align 4
  %56 = zext i32 %55 to i64
  %57 = getelementptr inbounds nuw [3 x i32], ptr @SDLToVK_PresentMode, i64 0, i64 %56
  %58 = load i32, ptr %57, align 4
  %59 = getelementptr inbounds nuw %struct.SwapchainSupportDetails, ptr %11, i32 0, i32 3
  %60 = load ptr, ptr %59, align 8
  %61 = getelementptr inbounds nuw %struct.SwapchainSupportDetails, ptr %11, i32 0, i32 4
  %62 = load i32, ptr %61, align 8
  %63 = call zeroext i1 @VULKAN_INTERNAL_VerifySwapPresentMode(i32 noundef %58, ptr noundef %60, i32 noundef %62)
  %64 = zext i1 %63 to i8
  store i8 %64, ptr %12, align 1
  %65 = getelementptr inbounds nuw %struct.SwapchainSupportDetails, ptr %11, i32 0, i32 1
  %66 = load ptr, ptr %65, align 8
  call void @SDL_free_REAL(ptr noundef %66)
  %67 = getelementptr inbounds nuw %struct.SwapchainSupportDetails, ptr %11, i32 0, i32 3
  %68 = load ptr, ptr %67, align 8
  call void @SDL_free_REAL(ptr noundef %68)
  br label %69

69:                                               ; preds = %54, %47
  %70 = load i8, ptr %12, align 1, !range !3, !noundef !4
  %71 = trunc i8 %70 to i1
  store i1 %71, ptr %4, align 1
  store i32 1, ptr %13, align 4
  br label %72

72:                                               ; preds = %69, %43, %26
  call void @llvm.lifetime.end.p0(i64 1, ptr %12) #9
  call void @llvm.lifetime.end.p0(i64 88, ptr %11) #9
  call void @llvm.lifetime.end.p0(i64 8, ptr %10) #9
  call void @llvm.lifetime.end.p0(i64 8, ptr %9) #9
  call void @llvm.lifetime.end.p0(i64 8, ptr %8) #9
  %73 = load i1, ptr %4, align 1
  ret i1 %73
}