; Function Attrs: nounwind uwtable
define internal noundef zeroext i1 @VULKAN_SupportsPresentMode(ptr noundef readonly captures(none) %0, ptr noundef %1, i32 noundef %2) #0 {
  %4 = alloca %struct.SwapchainSupportDetails, align 8
  %5 = tail call i32 @SDL_GetWindowProperties_REAL(ptr noundef %1) #13
  %6 = tail call ptr @SDL_GetPointerProperty_REAL(i32 noundef %5, ptr noundef nonnull @.str.215, ptr noundef null) #13
  call void @llvm.lifetime.start.p0(i64 88, ptr nonnull %4) #13
  %7 = icmp eq ptr %6, null
  br i1 %7, label %8, label %15

8:                                                ; preds = %3
  %9 = getelementptr inbounds nuw i8, ptr %0, i64 1628
  %10 = load i8, ptr %9, align 4, !range !3, !noundef !4
  %11 = trunc nuw i8 %10 to i1
  br i1 %11, label %12, label %13

12:                                               ; preds = %8
  tail call void (i32, ptr, ...) @SDL_LogError_REAL(i32 noundef 9, ptr noundef nonnull @.str.43, ptr noundef nonnull @.str.218) #13
  br label %13

13:                                               ; preds = %12, %8
  %14 = tail call zeroext i1 (ptr, ...) @SDL_SetError_REAL(ptr noundef nonnull @.str.43, ptr noundef nonnull @.str.218) #13
  br label %43

15:                                               ; preds = %3
  %16 = getelementptr inbounds nuw i8, ptr %6, i64 32
  %17 = load ptr, ptr %16, align 8
  %.not = icmp eq ptr %17, null
  br i1 %.not, label %18, label %25

18:                                               ; preds = %15
  %19 = getelementptr inbounds nuw i8, ptr %0, i64 1628
  %20 = load i8, ptr %19, align 4, !range !3, !noundef !4
  %21 = trunc nuw i8 %20 to i1
  br i1 %21, label %22, label %23

22:                                               ; preds = %18
  tail call void (i32, ptr, ...) @SDL_LogError_REAL(i32 noundef 9, ptr noundef nonnull @.str.43, ptr noundef nonnull @.str.214) #13
  br label %23

23:                                               ; preds = %22, %18
  %24 = tail call zeroext i1 (ptr, ...) @SDL_SetError_REAL(ptr noundef nonnull @.str.43, ptr noundef nonnull @.str.214) #13
  br label %43

25:                                               ; preds = %15
  %26 = getelementptr inbounds nuw i8, ptr %0, i64 8
  %27 = load ptr, ptr %26, align 8
  %28 = call fastcc zeroext i1 @VULKAN_INTERNAL_QuerySwapchainSupport(ptr noundef %0, ptr noundef %27, ptr noundef nonnull %17, ptr noundef %4)
  br i1 %28, label %29, label %43

29:                                               ; preds = %25
  %30 = zext i32 %2 to i64
  %31 = getelementptr inbounds nuw [3 x i32], ptr @SDLToVK_PresentMode, i64 0, i64 %30
  %32 = load i32, ptr %31, align 4
  %33 = getelementptr inbounds nuw i8, ptr %4, i64 72
  %34 = load ptr, ptr %33, align 8
  %35 = getelementptr inbounds nuw i8, ptr %4, i64 80
  %36 = load i32, ptr %35, align 8
  %.not.i = icmp eq i32 %36, 0
  br i1 %.not.i, label %VULKAN_INTERNAL_VerifySwapPresentMode.exit, label %.lr.ph.preheader.i

.lr.ph.preheader.i:                               ; preds = %29
  %wide.trip.count.i = zext i32 %36 to i64
  br label %.lr.ph.i

.lr.ph.i:                                         ; preds = %.lr.ph.i, %.lr.ph.preheader.i
  %indvars.iv.i = phi i64 [ 0, %.lr.ph.preheader.i ], [ %indvars.iv.next.i, %.lr.ph.i ]
  %37 = getelementptr inbounds nuw i32, ptr %34, i64 %indvars.iv.i
  %38 = load i32, ptr %37, align 4
  %39 = icmp eq i32 %38, %32
  %indvars.iv.next.i = add nuw nsw i64 %indvars.iv.i, 1
  %exitcond.not.i = icmp eq i64 %indvars.iv.next.i, %wide.trip.count.i
  %or.cond = select i1 %39, i1 true, i1 %exitcond.not.i
  br i1 %or.cond, label %VULKAN_INTERNAL_VerifySwapPresentMode.exit, label %.lr.ph.i, !llvm.loop !74

VULKAN_INTERNAL_VerifySwapPresentMode.exit:       ; preds = %.lr.ph.i, %29
  %.lcssa.i = phi i1 [ false, %29 ], [ %39, %.lr.ph.i ]
  %40 = getelementptr inbounds nuw i8, ptr %4, i64 56
  %41 = load ptr, ptr %40, align 8
  call void @SDL_free_REAL(ptr noundef %41) #13
  %42 = load ptr, ptr %33, align 8
  call void @SDL_free_REAL(ptr noundef %42) #13
  br label %43

43:                                               ; preds = %25, %VULKAN_INTERNAL_VerifySwapPresentMode.exit, %23, %13
  %.012 = phi i1 [ false, %13 ], [ false, %23 ], [ %.lcssa.i, %VULKAN_INTERNAL_VerifySwapPresentMode.exit ], [ false, %25 ]
  call void @llvm.lifetime.end.p0(i64 88, ptr nonnull %4) #13
  ret i1 %.012
}